target datalayout = "e-m:e-p270:32:32-p271:32:32-p272:64:64-i64:64-i128:128-f80:128-n8:16:32:64-S128"
target triple = "x86_64-pc-linux-gnu"

%struct.AggState = type { %struct.ScanState, ptr, i32, i32, i32, i32, ptr, i32, i32, ptr, ptr, ptr, ptr, ptr, ptr, ptr, ptr, i8, i8, i32, i32, ptr, ptr, ptr, i32, i8, i32, ptr, ptr, ptr, ptr, ptr, ptr, i8, i32, ptr, ptr, ptr, ptr, ptr, ptr, i8, i8, i64, i64, i32, double, i64, i64, i64, i32, ptr, ptr, ptr, ptr }
%struct.ScanState = type { %struct.PlanState, ptr, ptr, ptr }
%struct.PlanState = type { i32, ptr, ptr, ptr, ptr, ptr, ptr, ptr, ptr, ptr, ptr, ptr, ptr, ptr, ptr, ptr, ptr, ptr, i8, ptr, ptr, ptr, ptr, ptr, i8, i8, i8, i8, i8, i8, i8, i8 }
%struct.ExprContext = type { i32, ptr, ptr, ptr, ptr, ptr, ptr, ptr, ptr, ptr, i64, i8, i64, i8, ptr, ptr, ptr, ptr }
%struct.FmgrInfo = type { ptr, i32, i16, i8, i8, i8, ptr, ptr, ptr }
%struct.nameData = type { [64 x i8] }
%struct.AggStatePerTransData = type { ptr, i8, i8, i32, i32, i32, i32, i32, i32, %struct.FmgrInfo, %struct.FmgrInfo, %struct.FmgrInfo, i32, i32, i32, ptr, ptr, ptr, ptr, %struct.FmgrInfo, ptr, i64, i8, i16, i16, i8, i8, ptr, ptr, ptr, i64, i8, i8, ptr, ptr, ptr, ptr }
%struct.TupleDescData = type { i32, i32, i32, i32, ptr, [0 x %struct.CompactAttribute] }
%struct.CompactAttribute = type { i32, i16, i8, i8, i8, i8, i8, i8, i8 }
%struct.AggStatePerGroupData = type { i64, i8, i8 }
%struct.FormData_pg_attribute = type { i32, %struct.nameData, i32, i16, i16, i32, i16, i8, i8, i8, i8, i8, i8, i8, i8, i8, i8, i8, i16, i32 }

@work_mem = external global i32, align 4
@CurrentMemoryContext = external global ptr, align 8

; Function Attrs: inlinehint nounwind uwtable
define internal ptr @MemoryContextSwitchTo(ptr noundef %0) #3 {
  %2 = alloca ptr, align 8
  %3 = alloca ptr, align 8
  store ptr %0, ptr %2, align 8
  call void @llvm.lifetime.start.p0(i64 8, ptr %3) #9
  %4 = load ptr, ptr @CurrentMemoryContext, align 8
  store ptr %4, ptr %3, align 8
  %5 = load ptr, ptr %2, align 8
  store ptr %5, ptr @CurrentMemoryContext, align 8
  %6 = load ptr, ptr %3, align 8
  call void @llvm.lifetime.end.p0(i64 8, ptr %3) #9
  ret ptr %6
}

; Function Attrs: inlinehint nounwind uwtable
define internal ptr @TupleDescAttr(ptr noundef %0, i32 noundef %1) #3 {
  %3 = alloca ptr, align 8
  %4 = alloca i32, align 4
  %5 = alloca ptr, align 8
  store ptr %0, ptr %3, align 8
  store i32 %1, ptr %4, align 4
  call void @llvm.lifetime.start.p0(i64 8, ptr %5) #9
  %6 = load ptr, ptr %3, align 8
  %7 = load ptr, ptr %3, align 8
  %8 = getelementptr inbounds nuw %struct.TupleDescData, ptr %7, i32 0, i32 0
  %9 = load i32, ptr %8, align 8
  %10 = sext i32 %9 to i64
  %11 = mul i64 %10, 16
  %12 = add i64 24, %11
  %13 = getelementptr inbounds nuw i8, ptr %6, i64 %12
  store ptr %13, ptr %5, align 8
  %14 = load ptr, ptr %5, align 8
  %15 = load i32, ptr %4, align 4
  %16 = sext i32 %15 to i64
  %17 = getelementptr inbounds %struct.FormData_pg_attribute, ptr %14, i64 %16
  call void @llvm.lifetime.end.p0(i64 8, ptr %5) #9
  ret ptr %17
}

; Function Attrs: nounwind uwtable
define internal void @initialize_aggregate(ptr noundef %0, ptr noundef %1, ptr noundef %2) #0 {
  %4 = alloca ptr, align 8
  %5 = alloca ptr, align 8
  %6 = alloca ptr, align 8
  %7 = alloca ptr, align 8
  %8 = alloca ptr, align 8
  store ptr %0, ptr %4, align 8
  store ptr %1, ptr %5, align 8
  store ptr %2, ptr %6, align 8
  %9 = load ptr, ptr %5, align 8
  %10 = getelementptr inbounds nuw %struct.AggStatePerTransData, ptr %9, i32 0, i32 2
  %11 = load i8, ptr %10, align 1, !range !4, !noundef !5
  %12 = trunc i8 %11 to i1
  br i1 %12, label %13, label %103

13:                                               ; preds = %3
  %14 = load ptr, ptr %5, align 8
  %15 = getelementptr inbounds nuw %struct.AggStatePerTransData, ptr %14, i32 0, i32 33
  %16 = load ptr, ptr %15, align 8
  %17 = load ptr, ptr %4, align 8
  %18 = getelementptr inbounds nuw %struct.AggState, ptr %17, i32 0, i32 20
  %19 = load i32, ptr %18, align 8
  %20 = sext i32 %19 to i64
  %21 = getelementptr inbounds ptr, ptr %16, i64 %20
  %22 = load ptr, ptr %21, align 8
  %23 = icmp ne ptr %22, null
  br i1 %23, label %24, label %34

24:                                               ; preds = %13
  %25 = load ptr, ptr %5, align 8
  %26 = getelementptr inbounds nuw %struct.AggStatePerTransData, ptr %25, i32 0, i32 33
  %27 = load ptr, ptr %26, align 8
  %28 = load ptr, ptr %4, align 8
  %29 = getelementptr inbounds nuw %struct.AggState, ptr %28, i32 0, i32 20
  %30 = load i32, ptr %29, align 8
  %31 = sext i32 %30 to i64
  %32 = getelementptr inbounds ptr, ptr %27, i64 %31
  %33 = load ptr, ptr %32, align 8
  call void @tuplesort_end(ptr noundef %33)
  br label %34

34:                                               ; preds = %24, %13
  %35 = load ptr, ptr %5, align 8
  %36 = getelementptr inbounds nuw %struct.AggStatePerTransData, ptr %35, i32 0, i32 3
  %37 = load i32, ptr %36, align 4
  %38 = icmp eq i32 %37, 1
  br i1 %38, label %39, label %73

39:                                               ; preds = %34
  call void @llvm.lifetime.start.p0(i64 8, ptr %7) #9
  %40 = load ptr, ptr %5, align 8
  %41 = getelementptr inbounds nuw %struct.AggStatePerTransData, ptr %40, i32 0, i32 29
  %42 = load ptr, ptr %41, align 8
  %43 = call ptr @TupleDescAttr(ptr noundef %42, i32 noundef 0)
  store ptr %43, ptr %7, align 8
  %44 = load ptr, ptr %7, align 8
  %45 = getelementptr inbounds nuw %struct.FormData_pg_attribute, ptr %44, i32 0, i32 2
  %46 = load i32, ptr %45, align 4
  %47 = load ptr, ptr %5, align 8
  %48 = getelementptr inbounds nuw %struct.AggStatePerTransData, ptr %47, i32 0, i32 16
  %49 = load ptr, ptr %48, align 8
  %50 = getelementptr inbounds i32, ptr %49, i64 0
  %51 = load i32, ptr %50, align 4
  %52 = load ptr, ptr %5, align 8
  %53 = getelementptr inbounds nuw %struct.AggStatePerTransData, ptr %52, i32 0, i32 17
  %54 = load ptr, ptr %53, align 8
  %55 = getelementptr inbounds i32, ptr %54, i64 0
  %56 = load i32, ptr %55, align 4
  %57 = load ptr, ptr %5, align 8
  %58 = getelementptr inbounds nuw %struct.AggStatePerTransData, ptr %57, i32 0, i32 18
  %59 = load ptr, ptr %58, align 8
  %60 = getelementptr inbounds i8, ptr %59, i64 0
  %61 = load i8, ptr %60, align 1, !range !4, !noundef !5
  %62 = trunc i8 %61 to i1
  %63 = load i32, ptr @work_mem, align 4
  %64 = call ptr @tuplesort_begin_datum(i32 noundef %46, i32 noundef %51, i32 noundef %56, i1 noundef zeroext %62, i32 noundef %63, ptr noundef null, i32 noundef 0)
  %65 = load ptr, ptr %5, align 8
  %66 = getelementptr inbounds nuw %struct.AggStatePerTransData, ptr %65, i32 0, i32 33
  %67 = load ptr, ptr %66, align 8
  %68 = load ptr, ptr %4, align 8
  %69 = getelementptr inbounds nuw %struct.AggState, ptr %68, i32 0, i32 20
  %70 = load i32, ptr %69, align 8
  %71 = sext i32 %70 to i64
  %72 = getelementptr inbounds ptr, ptr %67, i64 %71
  store ptr %64, ptr %72, align 8
  call void @llvm.lifetime.end.p0(i64 8, ptr %7) #9
  br label %102

73:                                               ; preds = %34
  %74 = load ptr, ptr %5, align 8
  %75 = getelementptr inbounds nuw %struct.AggStatePerTransData, ptr %74, i32 0, i32 29
  %76 = load ptr, ptr %75, align 8
  %77 = load ptr, ptr %5, align 8
  %78 = getelementptr inbounds nuw %struct.AggStatePerTransData, ptr %77, i32 0, i32 13
  %79 = load i32, ptr %78, align 4
  %80 = load ptr, ptr %5, align 8
  %81 = getelementptr inbounds nuw %struct.AggStatePerTransData, ptr %80, i32 0, i32 15
  %82 = load ptr, ptr %81, align 8
  %83 = load ptr, ptr %5, align 8
  %84 = getelementptr inbounds nuw %struct.AggStatePerTransData, ptr %83, i32 0, i32 16
  %85 = load ptr, ptr %84, align 8
  %86 = load ptr, ptr %5, align 8
  %87 = getelementptr inbounds nuw %struct.AggStatePerTransData, ptr %86, i32 0, i32 17
  %88 = load ptr, ptr %87, align 8
  %89 = load ptr, ptr %5, align 8
  %90 = getelementptr inbounds nuw %struct.AggStatePerTransData, ptr %89, i32 0, i32 18
  %91 = load ptr, ptr %90, align 8
  %92 = load i32, ptr @work_mem, align 4
  %93 = call ptr @tuplesort_begin_heap(ptr noundef %76, i32 noundef %79, ptr noundef %82, ptr noundef %85, ptr noundef %88, ptr noundef %91, i32 noundef %92, ptr noundef null, i32 noundef 0)
  %94 = load ptr, ptr %5, align 8
  %95 = getelementptr inbounds nuw %struct.AggStatePerTransData, ptr %94, i32 0, i32 33
  %96 = load ptr, ptr %95, align 8
  %97 = load ptr, ptr %4, align 8
  %98 = getelementptr inbounds nuw %struct.AggState, ptr %97, i32 0, i32 20
  %99 = load i32, ptr %98, align 8
  %100 = sext i32 %99 to i64
  %101 = getelementptr inbounds ptr, ptr %96, i64 %100
  store ptr %93, ptr %101, align 8
  br label %102

102:                                              ; preds = %73, %39
  br label %103

103:                                              ; preds = %102, %3
  %104 = load ptr, ptr %5, align 8
  %105 = getelementptr inbounds nuw %struct.AggStatePerTransData, ptr %104, i32 0, i32 22
  %106 = load i8, ptr %105, align 8, !range !4, !noundef !5
  %107 = trunc i8 %106 to i1
  br i1 %107, label %108, label %114

108:                                              ; preds = %103
  %109 = load ptr, ptr %5, align 8
  %110 = getelementptr inbounds nuw %struct.AggStatePerTransData, ptr %109, i32 0, i32 21
  %111 = load i64, ptr %110, align 8
  %112 = load ptr, ptr %6, align 8
  %113 = getelementptr inbounds nuw %struct.AggStatePerGroupData, ptr %112, i32 0, i32 0
  store i64 %111, ptr %113, align 8
  br label %137

114:                                              ; preds = %103
  call void @llvm.lifetime.start.p0(i64 8, ptr %8) #9
  %115 = load ptr, ptr %4, align 8
  %116 = getelementptr inbounds nuw %struct.AggState, ptr %115, i32 0, i32 14
  %117 = load ptr, ptr %116, align 8
  %118 = getelementptr inbounds nuw %struct.ExprContext, ptr %117, i32 0, i32 5
  %119 = load ptr, ptr %118, align 8
  %120 = call ptr @MemoryContextSwitchTo(ptr noundef %119)
  store ptr %120, ptr %8, align 8
  %121 = load ptr, ptr %5, align 8
  %122 = getelementptr inbounds nuw %struct.AggStatePerTransData, ptr %121, i32 0, i32 21
  %123 = load i64, ptr %122, align 8
  %124 = load ptr, ptr %5, align 8
  %125 = getelementptr inbounds nuw %struct.AggStatePerTransData, ptr %124, i32 0, i32 26
  %126 = load i8, ptr %125, align 1, !range !4, !noundef !5
  %127 = trunc i8 %126 to i1
  %128 = load ptr, ptr %5, align 8
  %129 = getelementptr inbounds nuw %struct.AggStatePerTransData, ptr %128, i32 0, i32 24
  %130 = load i16, ptr %129, align 4
  %131 = sext i16 %130 to i32
  %132 = call i64 @datumCopy(i64 noundef %123, i1 noundef zeroext %127, i32 noundef %131)
  %133 = load ptr, ptr %6, align 8
  %134 = getelementptr inbounds nuw %struct.AggStatePerGroupData, ptr %133, i32 0, i32 0
  store i64 %132, ptr %134, align 8
  %135 = load ptr, ptr %8, align 8
  %136 = call ptr @MemoryContextSwitchTo(ptr noundef %135)
  call void @llvm.lifetime.end.p0(i64 8, ptr %8) #9
  br label %137

137:                                              ; preds = %114, %108
  %138 = load ptr, ptr %5, align 8
  %139 = getelementptr inbounds nuw %struct.AggStatePerTransData, ptr %138, i32 0, i32 22
  %140 = load i8, ptr %139, align 8, !range !4, !noundef !5
  %141 = trunc i8 %140 to i1
  %142 = load ptr, ptr %6, align 8
  %143 = getelementptr inbounds nuw %struct.AggStatePerGroupData, ptr %142, i32 0, i32 1
  %144 = zext i1 %141 to i8
  store i8 %144, ptr %143, align 8
  %145 = load ptr, ptr %5, align 8
  %146 = getelementptr inbounds nuw %struct.AggStatePerTransData, ptr %145, i32 0, i32 22
  %147 = load i8, ptr %146, align 8, !range !4, !noundef !5
  %148 = trunc i8 %147 to i1
  %149 = load ptr, ptr %6, align 8
  %150 = getelementptr inbounds nuw %struct.AggStatePerGroupData, ptr %149, i32 0, i32 2
  %151 = zext i1 %148 to i8
  store i8 %151, ptr %150, align 1
  ret void
}