; Function Attrs: nounwind uwtable
define internal fastcc void @initialize_aggregate(ptr noundef readonly captures(none) %0, ptr noundef readonly captures(none) %1, ptr noundef writeonly captures(none) initializes((0, 10)) %2) unnamed_addr #2 {
  %4 = getelementptr inbounds nuw i8, ptr %1, i64 9
  %5 = load i8, ptr %4, align 1, !range !6, !noundef !7
  %6 = trunc nuw i8 %5 to i1
  br i1 %6, label %7, label %58

7:                                                ; preds = %3
  %8 = getelementptr inbounds nuw i8, ptr %1, i64 344
  %9 = load ptr, ptr %8, align 8
  %10 = getelementptr inbounds nuw i8, ptr %0, i64 336
  %11 = load i32, ptr %10, align 8
  %12 = sext i32 %11 to i64
  %13 = getelementptr inbounds ptr, ptr %9, i64 %12
  %14 = load ptr, ptr %13, align 8
  %.not = icmp eq ptr %14, null
  br i1 %.not, label %16, label %15

15:                                               ; preds = %7
  tail call void @tuplesort_end(ptr noundef nonnull %14) #12
  br label %16

16:                                               ; preds = %15, %7
  %17 = getelementptr inbounds nuw i8, ptr %1, i64 12
  %18 = load i32, ptr %17, align 4
  %19 = icmp eq i32 %18, 1
  %20 = getelementptr inbounds nuw i8, ptr %1, i64 320
  %21 = load ptr, ptr %20, align 8
  br i1 %19, label %22, label %41

22:                                               ; preds = %16
  %23 = load i32, ptr %21, align 8
  %24 = sext i32 %23 to i64
  %25 = shl nsw i64 %24, 4
  %26 = getelementptr i8, ptr %21, i64 %25
  %27 = getelementptr i8, ptr %26, i64 92
  %28 = load i32, ptr %27, align 4
  %29 = getelementptr inbounds nuw i8, ptr %1, i64 208
  %30 = load ptr, ptr %29, align 8
  %31 = load i32, ptr %30, align 4
  %32 = getelementptr inbounds nuw i8, ptr %1, i64 216
  %33 = load ptr, ptr %32, align 8
  %34 = load i32, ptr %33, align 4
  %35 = getelementptr inbounds nuw i8, ptr %1, i64 224
  %36 = load ptr, ptr %35, align 8
  %37 = load i8, ptr %36, align 1, !range !6, !noundef !7
  %38 = trunc nuw i8 %37 to i1
  %39 = load i32, ptr @work_mem, align 4
  %40 = tail call ptr @tuplesort_begin_datum(i32 noundef %28, i32 noundef %31, i32 noundef %34, i1 noundef zeroext %38, i32 noundef %39, ptr noundef null, i32 noundef 0) #12
  br label %.sink.split

41:                                               ; preds = %16
  %42 = getelementptr inbounds nuw i8, ptr %1, i64 188
  %43 = load i32, ptr %42, align 4
  %44 = getelementptr inbounds nuw i8, ptr %1, i64 200
  %45 = load ptr, ptr %44, align 8
  %46 = getelementptr inbounds nuw i8, ptr %1, i64 208
  %47 = load ptr, ptr %46, align 8
  %48 = getelementptr inbounds nuw i8, ptr %1, i64 216
  %49 = load ptr, ptr %48, align 8
  %50 = getelementptr inbounds nuw i8, ptr %1, i64 224
  %51 = load ptr, ptr %50, align 8
  %52 = load i32, ptr @work_mem, align 4
  %53 = tail call ptr @tuplesort_begin_heap(ptr noundef %21, i32 noundef %43, ptr noundef %45, ptr noundef %47, ptr noundef %49, ptr noundef %51, i32 noundef %52, ptr noundef null, i32 noundef 0) #12
  br label %.sink.split

.sink.split:                                      ; preds = %41, %22
  %.sink = phi ptr [ %40, %22 ], [ %53, %41 ]
  %54 = load ptr, ptr %8, align 8
  %55 = load i32, ptr %10, align 8
  %56 = sext i32 %55 to i64
  %57 = getelementptr inbounds ptr, ptr %54, i64 %56
  store ptr %.sink, ptr %57, align 8
  br label %58

58:                                               ; preds = %.sink.split, %3
  %59 = getelementptr inbounds nuw i8, ptr %1, i64 296
  %60 = load i8, ptr %59, align 8, !range !6, !noundef !7
  %61 = trunc nuw i8 %60 to i1
  br i1 %61, label %62, label %65

62:                                               ; preds = %58
  %63 = getelementptr inbounds nuw i8, ptr %1, i64 288
  %64 = load i64, ptr %63, align 8
  store i64 %64, ptr %2, align 8
  br label %80

65:                                               ; preds = %58
  %66 = getelementptr inbounds nuw i8, ptr %0, i64 304
  %67 = load ptr, ptr %66, align 8
  %68 = getelementptr inbounds nuw i8, ptr %67, i64 40
  %69 = load ptr, ptr %68, align 8
  %70 = load ptr, ptr @CurrentMemoryContext, align 8
  store ptr %69, ptr @CurrentMemoryContext, align 8
  %71 = getelementptr inbounds nuw i8, ptr %1, i64 288
  %72 = load i64, ptr %71, align 8
  %73 = getelementptr inbounds nuw i8, ptr %1, i64 303
  %74 = load i8, ptr %73, align 1, !range !6, !noundef !7
  %75 = trunc nuw i8 %74 to i1
  %76 = getelementptr inbounds nuw i8, ptr %1, i64 300
  %77 = load i16, ptr %76, align 4
  %78 = sext i16 %77 to i32
  %79 = tail call i64 @datumCopy(i64 noundef %72, i1 noundef zeroext %75, i32 noundef %78) #12
  store i64 %79, ptr %2, align 8
  store ptr %70, ptr @CurrentMemoryContext, align 8
  br label %80

80:                                               ; preds = %65, %62
  %81 = load i8, ptr %59, align 8, !range !6, !noundef !7
  %82 = getelementptr inbounds nuw i8, ptr %2, i64 8
  store i8 %81, ptr %82, align 8
  %83 = getelementptr inbounds nuw i8, ptr %2, i64 9
  store i8 %81, ptr %83, align 1
  ret void
}